; Function Attrs: mustprogress nounwind uwtable
define hidden void @_ZN4cvc58internal6theory5arith13ArithIteUtils5clearEv(ptr noundef nonnull align 8 dereferenceable(504) %0) local_unnamed_addr #5 align 2 personality ptr @__gxx_personality_v0 {
  %2 = getelementptr inbounds nuw i8, ptr %0, i64 32
  %3 = getelementptr inbounds nuw i8, ptr %0, i64 48
  %4 = load ptr, ptr %3, align 8, !tbaa !156
  %.not5.i.i.i = icmp eq ptr %4, null
  br i1 %.not5.i.i.i, label %_ZNSt13unordered_mapIN4cvc58internal12NodeTemplateILb1EEES3_St4hashIS3_ESt8equal_toIS3_ESaISt4pairIKS3_S3_EEE5clearEv.exit, label %.lr.ph.i.i.i

.lr.ph.i.i.i:                                     ; preds = %1, %.noexc.i.i
  %.06.i.i.i = phi ptr [ %5, %.noexc.i.i ], [ %4, %1 ]
  %5 = load ptr, ptr %.06.i.i.i, align 8, !tbaa !31
  invoke void @_ZNSt8__detail16_Hashtable_allocISaINS_10_Hash_nodeISt4pairIKN4cvc58internal12NodeTemplateILb1EEES6_ELb1EEEEE18_M_deallocate_nodeEPS9_(ptr noundef nonnull align 8 dereferenceable(56) %2, ptr noundef nonnull %.06.i.i.i)
          to label %.noexc.i.i unwind label %6

.noexc.i.i:                                       ; preds = %.lr.ph.i.i.i
  %.not.i.i.i = icmp eq ptr %5, null
  br i1 %.not.i.i.i, label %_ZNSt13unordered_mapIN4cvc58internal12NodeTemplateILb1EEES3_St4hashIS3_ESt8equal_toIS3_ESaISt4pairIKS3_S3_EEE5clearEv.exit, label %.lr.ph.i.i.i, !llvm.loop !157

6:                                                ; preds = %.lr.ph.i.i.i
  %7 = landingpad { ptr, i32 }
          catch ptr null
  %8 = extractvalue { ptr, i32 } %7, 0
  tail call void @__clang_call_terminate(ptr %8) #25
  unreachable

_ZNSt13unordered_mapIN4cvc58internal12NodeTemplateILb1EEES3_St4hashIS3_ESt8equal_toIS3_ESaISt4pairIKS3_S3_EEE5clearEv.exit: ; preds = %.noexc.i.i, %1
  %9 = load ptr, ptr %2, align 8, !tbaa !34
  %10 = getelementptr inbounds nuw i8, ptr %0, i64 40
  %11 = load i64, ptr %10, align 8, !tbaa !33
  %12 = shl i64 %11, 3
  tail call void @llvm.memset.p0.i64(ptr align 8 %9, i8 0, i64 %12, i1 false)
  tail call void @llvm.memset.p0.i64(ptr noundef nonnull align 8 dereferenceable(16) %3, i8 0, i64 16, i1 false)
  %13 = getelementptr inbounds nuw i8, ptr %0, i64 88
  %14 = getelementptr inbounds nuw i8, ptr %0, i64 104
  %15 = load ptr, ptr %14, align 8, !tbaa !156
  %.not5.i.i.i1 = icmp eq ptr %15, null
  br i1 %.not5.i.i.i1, label %_ZNSt13unordered_mapIN4cvc58internal12NodeTemplateILb1EEES3_St4hashIS3_ESt8equal_toIS3_ESaISt4pairIKS3_S3_EEE5clearEv.exit6, label %.lr.ph.i.i.i2

.lr.ph.i.i.i2:                                    ; preds = %_ZNSt13unordered_mapIN4cvc58internal12NodeTemplateILb1EEES3_St4hashIS3_ESt8equal_toIS3_ESaISt4pairIKS3_S3_EEE5clearEv.exit, %.noexc.i.i4
  %.06.i.i.i3 = phi ptr [ %16, %.noexc.i.i4 ], [ %15, %_ZNSt13unordered_mapIN4cvc58internal12NodeTemplateILb1EEES3_St4hashIS3_ESt8equal_toIS3_ESaISt4pairIKS3_S3_EEE5clearEv.exit ]
  %16 = load ptr, ptr %.06.i.i.i3, align 8, !tbaa !31
  invoke void @_ZNSt8__detail16_Hashtable_allocISaINS_10_Hash_nodeISt4pairIKN4cvc58internal12NodeTemplateILb1EEES6_ELb1EEEEE18_M_deallocate_nodeEPS9_(ptr noundef nonnull align 8 dereferenceable(56) %13, ptr noundef nonnull %.06.i.i.i3)
          to label %.noexc.i.i4 unwind label %17

.noexc.i.i4:                                      ; preds = %.lr.ph.i.i.i2
  %.not.i.i.i5 = icmp eq ptr %16, null
  br i1 %.not.i.i.i5, label %_ZNSt13unordered_mapIN4cvc58internal12NodeTemplateILb1EEES3_St4hashIS3_ESt8equal_toIS3_ESaISt4pairIKS3_S3_EEE5clearEv.exit6, label %.lr.ph.i.i.i2, !llvm.loop !157

17:                                               ; preds = %.lr.ph.i.i.i2
  %18 = landingpad { ptr, i32 }
          catch ptr null
  %19 = extractvalue { ptr, i32 } %18, 0
  tail call void @__clang_call_terminate(ptr %19) #25
  unreachable

_ZNSt13unordered_mapIN4cvc58internal12NodeTemplateILb1EEES3_St4hashIS3_ESt8equal_toIS3_ESaISt4pairIKS3_S3_EEE5clearEv.exit6: ; preds = %.noexc.i.i4, %_ZNSt13unordered_mapIN4cvc58internal12NodeTemplateILb1EEES3_St4hashIS3_ESt8equal_toIS3_ESaISt4pairIKS3_S3_EEE5clearEv.exit
  %20 = load ptr, ptr %13, align 8, !tbaa !34
  %21 = getelementptr inbounds nuw i8, ptr %0, i64 96
  %22 = load i64, ptr %21, align 8, !tbaa !33
  %23 = shl i64 %22, 3
  tail call void @llvm.memset.p0.i64(ptr align 8 %20, i8 0, i64 %23, i1 false)
  tail call void @llvm.memset.p0.i64(ptr noundef nonnull align 8 dereferenceable(16) %14, i8 0, i64 16, i1 false)
  %24 = getelementptr inbounds nuw i8, ptr %0, i64 144
  %25 = getelementptr inbounds nuw i8, ptr %0, i64 160
  %26 = load ptr, ptr %25, align 8, !tbaa !156
  %.not5.i.i.i7 = icmp eq ptr %26, null
  br i1 %.not5.i.i.i7, label %_ZNSt13unordered_mapIN4cvc58internal12NodeTemplateILb1EEES3_St4hashIS3_ESt8equal_toIS3_ESaISt4pairIKS3_S3_EEE5clearEv.exit12, label %.lr.ph.i.i.i8

.lr.ph.i.i.i8:                                    ; preds = %_ZNSt13unordered_mapIN4cvc58internal12NodeTemplateILb1EEES3_St4hashIS3_ESt8equal_toIS3_ESaISt4pairIKS3_S3_EEE5clearEv.exit6, %.noexc.i.i10
  %.06.i.i.i9 = phi ptr [ %27, %.noexc.i.i10 ], [ %26, %_ZNSt13unordered_mapIN4cvc58internal12NodeTemplateILb1EEES3_St4hashIS3_ESt8equal_toIS3_ESaISt4pairIKS3_S3_EEE5clearEv.exit6 ]
  %27 = load ptr, ptr %.06.i.i.i9, align 8, !tbaa !31
  invoke void @_ZNSt8__detail16_Hashtable_allocISaINS_10_Hash_nodeISt4pairIKN4cvc58internal12NodeTemplateILb1EEES6_ELb1EEEEE18_M_deallocate_nodeEPS9_(ptr noundef nonnull align 8 dereferenceable(56) %24, ptr noundef nonnull %.06.i.i.i9)
          to label %.noexc.i.i10 unwind label %28

.noexc.i.i10:                                     ; preds = %.lr.ph.i.i.i8
  %.not.i.i.i11 = icmp eq ptr %27, null
  br i1 %.not.i.i.i11, label %_ZNSt13unordered_mapIN4cvc58internal12NodeTemplateILb1EEES3_St4hashIS3_ESt8equal_toIS3_ESaISt4pairIKS3_S3_EEE5clearEv.exit12, label %.lr.ph.i.i.i8, !llvm.loop !157

28:                                               ; preds = %.lr.ph.i.i.i8
  %29 = landingpad { ptr, i32 }
          catch ptr null
  %30 = extractvalue { ptr, i32 } %29, 0
  tail call void @__clang_call_terminate(ptr %30) #25
  unreachable

_ZNSt13unordered_mapIN4cvc58internal12NodeTemplateILb1EEES3_St4hashIS3_ESt8equal_toIS3_ESaISt4pairIKS3_S3_EEE5clearEv.exit12: ; preds = %.noexc.i.i10, %_ZNSt13unordered_mapIN4cvc58internal12NodeTemplateILb1EEES3_St4hashIS3_ESt8equal_toIS3_ESaISt4pairIKS3_S3_EEE5clearEv.exit6
  %31 = load ptr, ptr %24, align 8, !tbaa !34
  %32 = getelementptr inbounds nuw i8, ptr %0, i64 152
  %33 = load i64, ptr %32, align 8, !tbaa !33
  %34 = shl i64 %33, 3
  tail call void @llvm.memset.p0.i64(ptr align 8 %31, i8 0, i64 %34, i1 false)
  tail call void @llvm.memset.p0.i64(ptr noundef nonnull align 8 dereferenceable(16) %25, i8 0, i64 16, i1 false)
  ret void
}